target datalayout = "e-m:e-p270:32:32-p271:32:32-p272:64:64-i64:64-i128:128-f80:128-n8:16:32:64-S128"
target triple = "x86_64-pc-linux-gnu"

%struct.Curl_easy = type { i32, i64, i64, ptr, %struct.Curl_llist_node, %struct.Curl_llist_node, i32, i32, %struct.Curl_message, %struct.easy_pollset, %struct.Names, ptr, ptr, ptr, ptr, %struct.SingleRequest, %struct.UserDefined, ptr, ptr, ptr, %struct.Progress, %struct.UrlState, ptr, %struct.PureInfo, %struct.curl_tlssessioninfo }
%struct.Curl_llist_node = type { ptr, ptr, ptr, ptr }
%struct.Curl_message = type { %struct.Curl_llist_node, %struct.CURLMsg }
%struct.CURLMsg = type { i32, ptr, %union.anon }
%union.anon = type { ptr }
%struct.easy_pollset = type { [5 x i32], i32, [5 x i8] }
%struct.Names = type { ptr, i32 }
%struct.SingleRequest = type <{ i64, i64, i64, i64, %struct.curltime, i32, i32, i32, i32, i64, i32, i32, i8, i8, [2 x i8], i32, ptr, ptr, %struct.bufq, i64, i64, ptr, ptr, %union.anon.0, ptr, i8, i32, [3 x i8] }>
%struct.curltime = type { i64, i32 }
%struct.bufq = type { ptr, ptr, ptr, ptr, i64, i64, i64, i32 }
%union.anon.0 = type { ptr }
%struct.UserDefined = type <{ ptr, ptr, ptr, ptr, ptr, ptr, i64, i64, i64, ptr, ptr, i64, ptr, ptr, ptr, ptr, ptr, ptr, ptr, ptr, ptr, ptr, ptr, ptr, ptr, ptr, ptr, ptr, ptr, ptr, ptr, ptr, ptr, ptr, ptr, i64, i64, i64, i64, i64, i64, i64, i64, i64, ptr, ptr, %struct.curl_mimepart, ptr, ptr, ptr, i64, %struct.ssl_config_data, %struct.ssl_config_data, ptr, i16, i8, i8, %struct.ssl_general_config, i32, i32, i32, [4 x i8], ptr, ptr, i64, i32, i8, i8, i8, i8, ptr, ptr, ptr, i32, [4 x i8], [74 x ptr], [8 x ptr], i32, i32, i32, [4 x i8], ptr, i32, [4 x i8], ptr, ptr, ptr, ptr, ptr, i32, i32, i32, i32, i32, i32, i32, i32, i64, ptr, ptr, i64, ptr, i64, ptr, ptr, ptr, ptr, i32, i16, i16, i16, i8, i8, i8, i8, i8, i8, i8, i8, i64, [6 x i8] }>
%struct.curl_mimepart = type { ptr, ptr, i32, i32, ptr, ptr, ptr, ptr, ptr, ptr, ptr, ptr, ptr, ptr, ptr, i64, %struct.mime_state, ptr, %struct.mime_encoder_state, i64 }
%struct.mime_state = type { i32, ptr, i64 }
%struct.mime_encoder_state = type { i64, i64, i64, [256 x i8] }
%struct.ssl_config_data = type { %struct.ssl_primary_config, i64, ptr, ptr, ptr, ptr, ptr, ptr, ptr, i16 }
%struct.ssl_primary_config = type { ptr, ptr, ptr, ptr, ptr, ptr, ptr, ptr, ptr, ptr, ptr, ptr, ptr, ptr, i8, i32, i8, i8 }
%struct.ssl_general_config = type { i32 }
%struct.Progress = type { i64, %struct.pgrs_dir, %struct.pgrs_dir, i64, i64, i32, i32, i64, i64, i64, i64, i64, i64, i64, i64, i64, %struct.curltime, %struct.curltime, %struct.curltime, %struct.curltime, %struct.curltime, [6 x i64], [6 x %struct.curltime], i32, i8 }
%struct.pgrs_dir = type { i64, i64, i64, %struct.pgrs_measure }
%struct.pgrs_measure = type { %struct.curltime, i64 }
%struct.UrlState = type { %struct.curltime, i64, i64, %struct.dynbuf, ptr, i64, ptr, i32, i32, i32, ptr, i32, i64, i32, ptr, %struct.digestdata, %struct.digestdata, %struct.auth, %struct.auth, %struct.Curl_async, ptr, i8, %struct.curltime, %struct.Curl_tree, %struct.Curl_llist, [15 x %struct.time_node], ptr, ptr, i64, i64, i64, i64, [32 x i8], i64, ptr, ptr, ptr, %struct.urlpieces, ptr, ptr, ptr, ptr, ptr, i64, %struct.dynbuf, %struct.Curl_llist, [2 x %struct.curl_header], ptr, i32, ptr, ptr, %struct.store_netrc, %struct.dynamically_allocated_data, i8, i8, i8, i8, i32 }
%struct.digestdata = type { ptr, ptr, ptr, ptr, ptr, ptr, i32, i8, i8 }
%struct.auth = type { i64, i64, i64, i8 }
%struct.Curl_async = type { ptr, ptr, ptr, ptr, i32, i32, i8 }
%struct.Curl_tree = type { ptr, ptr, ptr, ptr, %struct.curltime, ptr }
%struct.time_node = type { %struct.Curl_llist_node, %struct.curltime, i32 }
%struct.urlpieces = type { ptr, ptr, ptr, ptr, ptr, ptr, ptr, ptr }
%struct.dynbuf = type { ptr, i64, i64, i64 }
%struct.Curl_llist = type { ptr, ptr, ptr, i64 }
%struct.curl_header = type { ptr, ptr, i64, i64, i32, ptr }
%struct.store_netrc = type { %struct.dynbuf, ptr, i8 }
%struct.dynamically_allocated_data = type { ptr, ptr, ptr, ptr, ptr, ptr, ptr, ptr, ptr, ptr, ptr, ptr, ptr, ptr }
%struct.PureInfo = type { i32, i32, i32, i64, i64, i64, i64, i64, i64, i64, ptr, ptr, i64, i32, %struct.ip_quadruple, i32, ptr, i32, %struct.curl_certinfo, i32, i8 }
%struct.ip_quadruple = type { [46 x i8], [46 x i8], i32, i32 }
%struct.curl_certinfo = type { i32, ptr }
%struct.curl_tlssessioninfo = type { i32, ptr }
%struct.connectdata = type { %struct.Curl_llist_node, ptr, ptr, i64, ptr, i64, ptr, ptr, %struct.hostname, ptr, ptr, %struct.hostname, %struct.proxy_info, %struct.proxy_info, %struct.ip_quadruple, %struct.ip_quadruple, ptr, ptr, ptr, ptr, ptr, %struct.curltime, %struct.curltime, %struct.curltime, [2 x i32], [2 x ptr], [2 x ptr], [2 x ptr], %struct.anon, %struct.easy_pollset, %struct.ssl_primary_config, %struct.ssl_primary_config, %struct.ConnectBits, ptr, ptr, %struct.curltime, i32, i32, %struct.Curl_llist, i32, i32, %struct.ntlmdata, %struct.ntlmdata, %union.anon.1, ptr, ptr, i16, i32, i32, i32, i32, i16, i16, i8, i8, i8, i8, i8, i8, i8 }
%struct.hostname = type { ptr, ptr, ptr, ptr }
%struct.proxy_info = type { %struct.hostname, i32, i8, ptr, ptr }
%struct.anon = type { [2 x %struct.curltime], i32 }
%struct.ConnectBits = type { i64 }
%struct.ntlmdata = type { i32, [8 x i8], i32, ptr }
%union.anon.1 = type { %struct.ftp_conn }
%struct.ftp_conn = type { %struct.pingpong, ptr, ptr, ptr, ptr, ptr, ptr, ptr, i8, i64, ptr, i64, i32, i32, i32, i32, i32, i16, i8, i8, i8, i8, i8 }
%struct.pingpong = type { i64, i8, ptr, i64, i64, %struct.curltime, i64, %struct.dynbuf, %struct.dynbuf, i64, i64, ptr, ptr }

; Function Attrs: nounwind uwtable
define internal void @xfer_setup(ptr noundef %0, i32 noundef %1, i64 noundef %2, i1 noundef zeroext %3, i32 noundef %4, i1 noundef zeroext %5, i1 noundef zeroext %6) #0 {
  %8 = alloca ptr, align 8
  %9 = alloca i32, align 4
  %10 = alloca i64, align 8
  %11 = alloca i8, align 1
  %12 = alloca i32, align 4
  %13 = alloca i8, align 1
  %14 = alloca i8, align 1
  %15 = alloca ptr, align 8
  %16 = alloca ptr, align 8
  %17 = alloca i8, align 1
  store ptr %0, ptr %8, align 8, !tbaa !3
  store i32 %1, ptr %9, align 4, !tbaa !103
  store i64 %2, ptr %10, align 8, !tbaa !10
  %18 = zext i1 %3 to i8
  store i8 %18, ptr %11, align 1, !tbaa !117
  store i32 %4, ptr %12, align 4, !tbaa !103
  %19 = zext i1 %5 to i8
  store i8 %19, ptr %13, align 1, !tbaa !117
  %20 = zext i1 %6 to i8
  store i8 %20, ptr %14, align 1, !tbaa !117
  call void @llvm.lifetime.start.p0(i64 8, ptr %15) #4
  %21 = load ptr, ptr %8, align 8, !tbaa !3
  %22 = getelementptr inbounds nuw %struct.Curl_easy, ptr %21, i32 0, i32 15
  store ptr %22, ptr %15, align 8, !tbaa !106
  call void @llvm.lifetime.start.p0(i64 8, ptr %16) #4
  %23 = load ptr, ptr %8, align 8, !tbaa !3
  %24 = getelementptr inbounds nuw %struct.Curl_easy, ptr %23, i32 0, i32 3
  %25 = load ptr, ptr %24, align 8, !tbaa !93
  store ptr %25, ptr %16, align 8, !tbaa !116
  call void @llvm.lifetime.start.p0(i64 1, ptr %17) #4
  %26 = load ptr, ptr %8, align 8, !tbaa !3
  %27 = call zeroext i1 @Curl_req_want_send(ptr noundef %26)
  %28 = zext i1 %27 to i8
  store i8 %28, ptr %17, align 1, !tbaa !117
  br label %29

29:                                               ; preds = %7
  br label %30

30:                                               ; preds = %29
  br label %31

31:                                               ; preds = %30
  br label %32

32:                                               ; preds = %31
  br label %33

33:                                               ; preds = %32
  br label %34

34:                                               ; preds = %33
  br label %35

35:                                               ; preds = %34
  br label %36

36:                                               ; preds = %35
  br label %37

37:                                               ; preds = %36
  br label %38

38:                                               ; preds = %37
  br label %39

39:                                               ; preds = %38
  br label %40

40:                                               ; preds = %39
  %41 = load ptr, ptr %16, align 8, !tbaa !116
  %42 = call zeroext i1 @Curl_conn_is_multiplex(ptr noundef %41, i32 noundef 0)
  br i1 %42, label %46, label %43

43:                                               ; preds = %40
  %44 = load i8, ptr %17, align 1, !tbaa !117, !range !119, !noundef !120
  %45 = trunc i8 %44 to i1
  br i1 %45, label %46, label %82

46:                                               ; preds = %43, %40
  %47 = load i32, ptr %9, align 4, !tbaa !103
  %48 = icmp eq i32 %47, -1
  br i1 %48, label %49, label %62

49:                                               ; preds = %46
  %50 = load i32, ptr %12, align 4, !tbaa !103
  %51 = icmp eq i32 %50, -1
  br i1 %51, label %52, label %53

52:                                               ; preds = %49
  br label %60

53:                                               ; preds = %49
  %54 = load ptr, ptr %16, align 8, !tbaa !116
  %55 = getelementptr inbounds nuw %struct.connectdata, ptr %54, i32 0, i32 24
  %56 = load i32, ptr %12, align 4, !tbaa !103
  %57 = sext i32 %56 to i64
  %58 = getelementptr inbounds [2 x i32], ptr %55, i64 0, i64 %57
  %59 = load i32, ptr %58, align 4, !tbaa !103
  br label %60

60:                                               ; preds = %53, %52
  %61 = phi i32 [ -1, %52 ], [ %59, %53 ]
  br label %69

62:                                               ; preds = %46
  %63 = load ptr, ptr %16, align 8, !tbaa !116
  %64 = getelementptr inbounds nuw %struct.connectdata, ptr %63, i32 0, i32 24
  %65 = load i32, ptr %9, align 4, !tbaa !103
  %66 = sext i32 %65 to i64
  %67 = getelementptr inbounds [2 x i32], ptr %64, i64 0, i64 %66
  %68 = load i32, ptr %67, align 4, !tbaa !103
  br label %69

69:                                               ; preds = %62, %60
  %70 = phi i32 [ %61, %60 ], [ %68, %62 ]
  %71 = load ptr, ptr %16, align 8, !tbaa !116
  %72 = getelementptr inbounds nuw %struct.connectdata, ptr %71, i32 0, i32 36
  store i32 %70, ptr %72, align 8, !tbaa !178
  %73 = load ptr, ptr %16, align 8, !tbaa !116
  %74 = getelementptr inbounds nuw %struct.connectdata, ptr %73, i32 0, i32 36
  %75 = load i32, ptr %74, align 8, !tbaa !178
  %76 = load ptr, ptr %16, align 8, !tbaa !116
  %77 = getelementptr inbounds nuw %struct.connectdata, ptr %76, i32 0, i32 37
  store i32 %75, ptr %77, align 4, !tbaa !94
  %78 = load i8, ptr %17, align 1, !tbaa !117, !range !119, !noundef !120
  %79 = trunc i8 %78 to i1
  br i1 %79, label %80, label %81

80:                                               ; preds = %69
  store i32 0, ptr %12, align 4, !tbaa !103
  br label %81

81:                                               ; preds = %80, %69
  br label %111

82:                                               ; preds = %43
  %83 = load i32, ptr %9, align 4, !tbaa !103
  %84 = icmp eq i32 %83, -1
  br i1 %84, label %85, label %86

85:                                               ; preds = %82
  br label %93

86:                                               ; preds = %82
  %87 = load ptr, ptr %16, align 8, !tbaa !116
  %88 = getelementptr inbounds nuw %struct.connectdata, ptr %87, i32 0, i32 24
  %89 = load i32, ptr %9, align 4, !tbaa !103
  %90 = sext i32 %89 to i64
  %91 = getelementptr inbounds [2 x i32], ptr %88, i64 0, i64 %90
  %92 = load i32, ptr %91, align 4, !tbaa !103
  br label %93

93:                                               ; preds = %86, %85
  %94 = phi i32 [ -1, %85 ], [ %92, %86 ]
  %95 = load ptr, ptr %16, align 8, !tbaa !116
  %96 = getelementptr inbounds nuw %struct.connectdata, ptr %95, i32 0, i32 36
  store i32 %94, ptr %96, align 8, !tbaa !178
  %97 = load i32, ptr %12, align 4, !tbaa !103
  %98 = icmp eq i32 %97, -1
  br i1 %98, label %99, label %100

99:                                               ; preds = %93
  br label %107

100:                                              ; preds = %93
  %101 = load ptr, ptr %16, align 8, !tbaa !116
  %102 = getelementptr inbounds nuw %struct.connectdata, ptr %101, i32 0, i32 24
  %103 = load i32, ptr %12, align 4, !tbaa !103
  %104 = sext i32 %103 to i64
  %105 = getelementptr inbounds [2 x i32], ptr %102, i64 0, i64 %104
  %106 = load i32, ptr %105, align 4, !tbaa !103
  br label %107

107:                                              ; preds = %100, %99
  %108 = phi i32 [ -1, %99 ], [ %106, %100 ]
  %109 = load ptr, ptr %16, align 8, !tbaa !116
  %110 = getelementptr inbounds nuw %struct.connectdata, ptr %109, i32 0, i32 37
  store i32 %108, ptr %110, align 4, !tbaa !94
  br label %111

111:                                              ; preds = %107, %81
  %112 = load i8, ptr %11, align 1, !tbaa !117, !range !119, !noundef !120
  %113 = trunc i8 %112 to i1
  %114 = zext i1 %113 to i32
  %115 = load ptr, ptr %15, align 8, !tbaa !106
  %116 = getelementptr inbounds nuw %struct.SingleRequest, ptr %115, i32 0, i32 26
  %117 = load i32, ptr %116, align 1
  %118 = and i32 %114, 1
  %119 = shl i32 %118, 16
  %120 = and i32 %117, -65537
  %121 = or i32 %120, %119
  store i32 %121, ptr %116, align 1
  %122 = load i64, ptr %10, align 8, !tbaa !10
  %123 = load ptr, ptr %15, align 8, !tbaa !106
  %124 = getelementptr inbounds nuw %struct.SingleRequest, ptr %123, i32 0, i32 0
  store i64 %122, ptr %124, align 8, !tbaa !111
  %125 = load i8, ptr %13, align 1, !tbaa !117, !range !119, !noundef !120
  %126 = trunc i8 %125 to i1
  %127 = zext i1 %126 to i32
  %128 = load ptr, ptr %15, align 8, !tbaa !106
  %129 = getelementptr inbounds nuw %struct.SingleRequest, ptr %128, i32 0, i32 26
  %130 = load i32, ptr %129, align 1
  %131 = and i32 %127, 1
  %132 = shl i32 %131, 20
  %133 = and i32 %130, -1048577
  %134 = or i32 %133, %132
  store i32 %134, ptr %129, align 1
  %135 = load i8, ptr %14, align 1, !tbaa !117, !range !119, !noundef !120
  %136 = trunc i8 %135 to i1
  %137 = zext i1 %136 to i32
  %138 = load ptr, ptr %15, align 8, !tbaa !106
  %139 = getelementptr inbounds nuw %struct.SingleRequest, ptr %138, i32 0, i32 26
  %140 = load i32, ptr %139, align 1
  %141 = and i32 %137, 1
  %142 = shl i32 %141, 21
  %143 = and i32 %140, -2097153
  %144 = or i32 %143, %142
  store i32 %144, ptr %139, align 1
  %145 = load ptr, ptr %15, align 8, !tbaa !106
  %146 = getelementptr inbounds nuw %struct.SingleRequest, ptr %145, i32 0, i32 26
  %147 = load i32, ptr %146, align 1
  %148 = lshr i32 %147, 16
  %149 = and i32 %148, 1
  %150 = icmp ne i32 %149, 0
  br i1 %150, label %163, label %151

151:                                              ; preds = %111
  %152 = load ptr, ptr %15, align 8, !tbaa !106
  %153 = getelementptr inbounds nuw %struct.SingleRequest, ptr %152, i32 0, i32 26
  %154 = load i32, ptr %153, align 1
  %155 = and i32 %154, -2
  %156 = or i32 %155, 0
  store i32 %156, ptr %153, align 1
  %157 = load i64, ptr %10, align 8, !tbaa !10
  %158 = icmp sgt i64 %157, 0
  br i1 %158, label %159, label %162

159:                                              ; preds = %151
  %160 = load ptr, ptr %8, align 8, !tbaa !3
  %161 = load i64, ptr %10, align 8, !tbaa !10
  call void @Curl_pgrsSetDownloadSize(ptr noundef %160, i64 noundef %161)
  br label %162

162:                                              ; preds = %159, %151
  br label %163

163:                                              ; preds = %162, %111
  %164 = load ptr, ptr %15, align 8, !tbaa !106
  %165 = getelementptr inbounds nuw %struct.SingleRequest, ptr %164, i32 0, i32 26
  %166 = load i32, ptr %165, align 1
  %167 = lshr i32 %166, 16
  %168 = and i32 %167, 1
  %169 = icmp ne i32 %168, 0
  br i1 %169, label %178, label %170

170:                                              ; preds = %163
  %171 = load ptr, ptr %8, align 8, !tbaa !3
  %172 = getelementptr inbounds nuw %struct.Curl_easy, ptr %171, i32 0, i32 15
  %173 = getelementptr inbounds nuw %struct.SingleRequest, ptr %172, i32 0, i32 26
  %174 = load i32, ptr %173, align 1
  %175 = lshr i32 %174, 17
  %176 = and i32 %175, 1
  %177 = icmp ne i32 %176, 0
  br i1 %177, label %195, label %178

178:                                              ; preds = %170, %163
  %179 = load i32, ptr %9, align 4, !tbaa !103
  %180 = icmp ne i32 %179, -1
  br i1 %180, label %181, label %186

181:                                              ; preds = %178
  %182 = load ptr, ptr %15, align 8, !tbaa !106
  %183 = getelementptr inbounds nuw %struct.SingleRequest, ptr %182, i32 0, i32 11
  %184 = load i32, ptr %183, align 4, !tbaa !109
  %185 = or i32 %184, 1
  store i32 %185, ptr %183, align 4, !tbaa !109
  br label %186

186:                                              ; preds = %181, %178
  %187 = load i32, ptr %12, align 4, !tbaa !103
  %188 = icmp ne i32 %187, -1
  br i1 %188, label %189, label %194

189:                                              ; preds = %186
  %190 = load ptr, ptr %15, align 8, !tbaa !106
  %191 = getelementptr inbounds nuw %struct.SingleRequest, ptr %190, i32 0, i32 11
  %192 = load i32, ptr %191, align 4, !tbaa !109
  %193 = or i32 %192, 2
  store i32 %193, ptr %191, align 4, !tbaa !109
  br label %194

194:                                              ; preds = %189, %186
  br label %195

195:                                              ; preds = %194, %170
  call void @llvm.lifetime.end.p0(i64 1, ptr %17) #4
  call void @llvm.lifetime.end.p0(i64 8, ptr %16) #4
  call void @llvm.lifetime.end.p0(i64 8, ptr %15) #4
  ret void
}