; Function Attrs: nounwind uwtable
define internal fastcc void @xfer_setup(ptr noundef %0, i32 noundef range(i32 -1, 2) %1, i64 noundef %2, i1 noundef zeroext %3, i32 noundef range(i32 -1, 2) %4, i1 noundef zeroext %5, i1 noundef zeroext %6) unnamed_addr #0 {
  %8 = getelementptr inbounds nuw i8, ptr %0, i64 240
  %9 = getelementptr inbounds nuw i8, ptr %0, i64 24
  %10 = load ptr, ptr %9, align 8, !tbaa !85
  %11 = tail call zeroext i1 @Curl_req_want_send(ptr noundef %0) #6
  %12 = tail call zeroext i1 @Curl_conn_is_multiplex(ptr noundef %10, i32 noundef 0) #6
  %brmerge = select i1 %12, i1 true, i1 %11
  %13 = icmp eq i32 %1, -1
  br i1 %brmerge, label %14, label %25

14:                                               ; preds = %7
  br i1 %13, label %15, label %.sink.split

15:                                               ; preds = %14
  %16 = icmp eq i32 %4, -1
  br i1 %16, label %21, label %.sink.split

.sink.split:                                      ; preds = %14, %15
  %.sink = phi i32 [ %4, %15 ], [ %1, %14 ]
  %17 = getelementptr inbounds nuw i8, ptr %10, i64 568
  %18 = zext nneg i32 %.sink to i64
  %19 = getelementptr inbounds nuw [2 x i32], ptr %17, i64 0, i64 %18
  %20 = load i32, ptr %19, align 4, !tbaa !95
  br label %21

21:                                               ; preds = %.sink.split, %15
  %22 = phi i32 [ -1, %15 ], [ %20, %.sink.split ]
  %23 = getelementptr inbounds nuw i8, ptr %10, i64 992
  store i32 %22, ptr %23, align 8, !tbaa !104
  %24 = getelementptr inbounds nuw i8, ptr %10, i64 996
  store i32 %22, ptr %24, align 4, !tbaa !86
  %spec.select = select i1 %11, i32 0, i32 %4
  br label %43

25:                                               ; preds = %7
  br i1 %13, label %31, label %26

26:                                               ; preds = %25
  %27 = getelementptr inbounds nuw i8, ptr %10, i64 568
  %28 = zext nneg i32 %1 to i64
  %29 = getelementptr inbounds nuw [2 x i32], ptr %27, i64 0, i64 %28
  %30 = load i32, ptr %29, align 4, !tbaa !95
  br label %31

31:                                               ; preds = %25, %26
  %32 = phi i32 [ %30, %26 ], [ -1, %25 ]
  %33 = getelementptr inbounds nuw i8, ptr %10, i64 992
  store i32 %32, ptr %33, align 8, !tbaa !104
  %34 = icmp eq i32 %4, -1
  br i1 %34, label %40, label %35

35:                                               ; preds = %31
  %36 = getelementptr inbounds nuw i8, ptr %10, i64 568
  %37 = zext nneg i32 %4 to i64
  %38 = getelementptr inbounds nuw [2 x i32], ptr %36, i64 0, i64 %37
  %39 = load i32, ptr %38, align 4, !tbaa !95
  br label %40

40:                                               ; preds = %31, %35
  %41 = phi i32 [ %39, %35 ], [ -1, %31 ]
  %42 = getelementptr inbounds nuw i8, ptr %10, i64 996
  store i32 %41, ptr %42, align 4, !tbaa !86
  br label %43

43:                                               ; preds = %21, %40
  %.0 = phi i32 [ %4, %40 ], [ %spec.select, %21 ]
  %44 = getelementptr inbounds nuw i8, ptr %0, i64 457
  %45 = load i32, ptr %44, align 1
  %46 = select i1 %3, i32 65536, i32 0
  %47 = and i32 %45, -3211265
  %48 = or disjoint i32 %47, %46
  store i64 %2, ptr %8, align 8, !tbaa !115
  %49 = select i1 %5, i32 1048576, i32 0
  %50 = select i1 %6, i32 2097152, i32 0
  %51 = or disjoint i32 %50, %49
  %52 = or disjoint i32 %51, %48
  store i32 %52, ptr %44, align 1
  br i1 %3, label %57, label %53

53:                                               ; preds = %43
  %54 = and i32 %52, -2
  store i32 %54, ptr %44, align 1
  %55 = icmp sgt i64 %2, 0
  br i1 %55, label %56, label %57

56:                                               ; preds = %53
  tail call void @Curl_pgrsSetDownloadSize(ptr noundef nonnull %0, i64 noundef %2) #6
  %.pre = load i32, ptr %44, align 1
  br label %57

57:                                               ; preds = %53, %56, %43
  %58 = phi i32 [ %54, %53 ], [ %.pre, %56 ], [ %52, %43 ]
  %59 = and i32 %58, 196608
  %or.cond.not = icmp eq i32 %59, 131072
  br i1 %or.cond.not, label %70, label %60

60:                                               ; preds = %57
  %.not46 = icmp eq i32 %1, -1
  br i1 %.not46, label %65, label %61

61:                                               ; preds = %60
  %62 = getelementptr inbounds nuw i8, ptr %0, i64 316
  %63 = load i32, ptr %62, align 4, !tbaa !97
  %64 = or i32 %63, 1
  store i32 %64, ptr %62, align 4, !tbaa !97
  br label %65

65:                                               ; preds = %61, %60
  %.not47 = icmp eq i32 %.0, -1
  br i1 %.not47, label %70, label %66

66:                                               ; preds = %65
  %67 = getelementptr inbounds nuw i8, ptr %0, i64 316
  %68 = load i32, ptr %67, align 4, !tbaa !97
  %69 = or i32 %68, 2
  store i32 %69, ptr %67, align 4, !tbaa !97
  br label %70

70:                                               ; preds = %57, %65, %66
  ret void
}